(lp0
S'http://www.digital.nyc/startups'
p1
aS'http://www.digital.nyc/startups?page=1'
p2
aS'http://www.digital.nyc/startups?page=2'
p3
aS'http://www.digital.nyc/startups?page=3'
p4
aS'http://www.digital.nyc/startups?page=4'
p5
aS'http://www.digital.nyc/startups?page=5'
p6
aS'http://www.digital.nyc/startups?page=6'
p7
aS'http://www.digital.nyc/startups?page=7'
p8
aS'http://www.digital.nyc/startups?page=8'
p9
aS'http://www.digital.nyc/startups?page=9'
p10
aS'http://www.digital.nyc/startups?page=10'
p11
aS'http://www.digital.nyc/startups?page=11'
p12
aS'http://www.digital.nyc/startups?page=12'
p13
aS'http://www.digital.nyc/startups?page=13'
p14
aS'http://www.digital.nyc/startups?page=14'
p15
aS'http://www.digital.nyc/startups?page=15'
p16
aS'http://www.digital.nyc/startups?page=16'
p17
aS'http://www.digital.nyc/startups?page=17'
p18
aS'http://www.digital.nyc/startups?page=18'
p19
aS'http://www.digital.nyc/startups?page=19'
p20
aS'http://www.digital.nyc/startups?page=20'
p21
aS'http://www.digital.nyc/startups?page=21'
p22
aS'http://www.digital.nyc/startups?page=22'
p23
aS'http://www.digital.nyc/startups?page=23'
p24
aS'http://www.digital.nyc/startups?page=24'
p25
aS'http://www.digital.nyc/startups?page=25'
p26
aS'http://www.digital.nyc/startups?page=26'
p27
aS'http://www.digital.nyc/startups?page=27'
p28
aS'http://www.digital.nyc/startups?page=28'
p29
aS'http://www.digital.nyc/startups?page=29'
p30
aS'http://www.digital.nyc/startups?page=30'
p31
aS'http://www.digital.nyc/startups?page=31'
p32
aS'http://www.digital.nyc/startups?page=32'
p33
aS'http://www.digital.nyc/startups?page=33'
p34
aS'http://www.digital.nyc/startups?page=34'
p35
aS'http://www.digital.nyc/startups?page=35'
p36
aS'http://www.digital.nyc/startups?page=36'
p37
aS'http://www.digital.nyc/startups?page=37'
p38
aS'http://www.digital.nyc/startups?page=38'
p39
aS'http://www.digital.nyc/startups?page=39'
p40
aS'http://www.digital.nyc/startups?page=40'
p41
aS'http://www.digital.nyc/startups?page=41'
p42
aS'http://www.digital.nyc/startups?page=42'
p43
aS'http://www.digital.nyc/startups?page=43'
p44
aS'http://www.digital.nyc/startups?page=44'
p45
aS'http://www.digital.nyc/startups?page=45'
p46
aS'http://www.digital.nyc/startups?page=46'
p47
aS'http://www.digital.nyc/startups?page=47'
p48
aS'http://www.digital.nyc/startups?page=48'
p49
aS'http://www.digital.nyc/startups?page=49'
p50
aS'http://www.digital.nyc/startups?page=50'
p51
aS'http://www.digital.nyc/startups?page=51'
p52
aS'http://www.digital.nyc/startups?page=52'
p53
aS'http://www.digital.nyc/startups?page=53'
p54
aS'http://www.digital.nyc/startups?page=54'
p55
aS'http://www.digital.nyc/startups?page=55'
p56
aS'http://www.digital.nyc/startups?page=56'
p57
aS'http://www.digital.nyc/startups?page=57'
p58
aS'http://www.digital.nyc/startups?page=58'
p59
aS'http://www.digital.nyc/startups?page=59'
p60
aS'http://www.digital.nyc/startups?page=60'
p61
aS'http://www.digital.nyc/startups?page=61'
p62
aS'http://www.digital.nyc/startups?page=62'
p63
aS'http://www.digital.nyc/startups?page=63'
p64
aS'http://www.digital.nyc/startups?page=64'
p65
aS'http://www.digital.nyc/startups?page=65'
p66
aS'http://www.digital.nyc/startups?page=66'
p67
aS'http://www.digital.nyc/startups?page=67'
p68
aS'http://www.digital.nyc/startups?page=68'
p69
aS'http://www.digital.nyc/startups?page=69'
p70
aS'http://www.digital.nyc/startups?page=70'
p71
aS'http://www.digital.nyc/startups?page=71'
p72
aS'http://www.digital.nyc/startups?page=72'
p73
aS'http://www.digital.nyc/startups?page=73'
p74
aS'http://www.digital.nyc/startups?page=74'
p75
aS'http://www.digital.nyc/startups?page=75'
p76
aS'http://www.digital.nyc/startups?page=76'
p77
aS'http://www.digital.nyc/startups?page=77'
p78
aS'http://www.digital.nyc/startups?page=78'
p79
aS'http://www.digital.nyc/startups?page=79'
p80
aS'http://www.digital.nyc/startups?page=80'
p81
aS'http://www.digital.nyc/startups?page=81'
p82
aS'http://www.digital.nyc/startups?page=82'
p83
aS'http://www.digital.nyc/startups?page=83'
p84
aS'http://www.digital.nyc/startups?page=84'
p85
aS'http://www.digital.nyc/startups?page=85'
p86
aS'http://www.digital.nyc/startups?page=86'
p87
aS'http://www.digital.nyc/startups?page=87'
p88
aS'http://www.digital.nyc/startups?page=88'
p89
aS'http://www.digital.nyc/startups?page=89'
p90
aS'http://www.digital.nyc/startups?page=90'
p91
aS'http://www.digital.nyc/startups?page=91'
p92
aS'http://www.digital.nyc/startups?page=92'
p93
aS'http://www.digital.nyc/startups?page=93'
p94
aS'http://www.digital.nyc/startups?page=94'
p95
aS'http://www.digital.nyc/startups?page=95'
p96
aS'http://www.digital.nyc/startups?page=96'
p97
aS'http://www.digital.nyc/startups?page=97'
p98
aS'http://www.digital.nyc/startups?page=98'
p99
aS'http://www.digital.nyc/startups?page=99'
p100
aS'http://www.digital.nyc/startups?page=100'
p101
aS'http://www.digital.nyc/startups?page=101'
p102
aS'http://www.digital.nyc/startups?page=102'
p103
aS'http://www.digital.nyc/startups?page=103'
p104
aS'http://www.digital.nyc/startups?page=104'
p105
aS'http://www.digital.nyc/startups?page=105'
p106
aS'http://www.digital.nyc/startups?page=106'
p107
aS'http://www.digital.nyc/startups?page=107'
p108
aS'http://www.digital.nyc/startups?page=108'
p109
aS'http://www.digital.nyc/startups?page=109'
p110
aS'http://www.digital.nyc/startups?page=110'
p111
aS'http://www.digital.nyc/startups?page=111'
p112
aS'http://www.digital.nyc/startups?page=112'
p113
aS'http://www.digital.nyc/startups?page=113'
p114
aS'http://www.digital.nyc/startups?page=114'
p115
aS'http://www.digital.nyc/startups?page=115'
p116
aS'http://www.digital.nyc/startups?page=116'
p117
aS'http://www.digital.nyc/startups?page=117'
p118
aS'http://www.digital.nyc/startups?page=118'
p119
aS'http://www.digital.nyc/startups?page=119'
p120
aS'http://www.digital.nyc/startups?page=120'
p121
aS'http://www.digital.nyc/startups?page=121'
p122
aS'http://www.digital.nyc/startups?page=122'
p123
aS'http://www.digital.nyc/startups?page=123'
p124
aS'http://www.digital.nyc/startups?page=124'
p125
aS'http://www.digital.nyc/startups?page=125'
p126
aS'http://www.digital.nyc/startups?page=126'
p127
aS'http://www.digital.nyc/startups?page=127'
p128
aS'http://www.digital.nyc/startups?page=128'
p129
aS'http://www.digital.nyc/startups?page=129'
p130
aS'http://www.digital.nyc/startups?page=130'
p131
aS'http://www.digital.nyc/startups?page=131'
p132
aS'http://www.digital.nyc/startups?page=132'
p133
aS'http://www.digital.nyc/startups?page=133'
p134
aS'http://www.digital.nyc/startups?page=134'
p135
aS'http://www.digital.nyc/startups?page=135'
p136
aS'http://www.digital.nyc/startups?page=136'
p137
aS'http://www.digital.nyc/startups?page=137'
p138
aS'http://www.digital.nyc/startups?page=138'
p139
aS'http://www.digital.nyc/startups?page=139'
p140
aS'http://www.digital.nyc/startups?page=140'
p141
aS'http://www.digital.nyc/startups?page=141'
p142
aS'http://www.digital.nyc/startups?page=142'
p143
aS'http://www.digital.nyc/startups?page=143'
p144
aS'http://www.digital.nyc/startups?page=144'
p145
aS'http://www.digital.nyc/startups?page=145'
p146
aS'http://www.digital.nyc/startups?page=146'
p147
aS'http://www.digital.nyc/startups?page=147'
p148
aS'http://www.digital.nyc/startups?page=148'
p149
aS'http://www.digital.nyc/startups?page=149'
p150
aS'http://www.digital.nyc/startups?page=150'
p151
aS'http://www.digital.nyc/startups?page=151'
p152
aS'http://www.digital.nyc/startups?page=152'
p153
aS'http://www.digital.nyc/startups?page=153'
p154
aS'http://www.digital.nyc/startups?page=154'
p155
aS'http://www.digital.nyc/startups?page=155'
p156
aS'http://www.digital.nyc/startups?page=156'
p157
aS'http://www.digital.nyc/startups?page=157'
p158
aS'http://www.digital.nyc/startups?page=158'
p159
aS'http://www.digital.nyc/startups?page=159'
p160
aS'http://www.digital.nyc/startups?page=160'
p161
aS'http://www.digital.nyc/startups?page=161'
p162
aS'http://www.digital.nyc/startups?page=162'
p163
aS'http://www.digital.nyc/startups?page=163'
p164
aS'http://www.digital.nyc/startups?page=164'
p165
aS'http://www.digital.nyc/startups?page=165'
p166
aS'http://www.digital.nyc/startups?page=166'
p167
aS'http://www.digital.nyc/startups?page=167'
p168
aS'http://www.digital.nyc/startups?page=168'
p169
aS'http://www.digital.nyc/startups?page=169'
p170
aS'http://www.digital.nyc/startups?page=170'
p171
aS'http://www.digital.nyc/startups?page=171'
p172
aS'http://www.digital.nyc/startups?page=172'
p173
aS'http://www.digital.nyc/startups?page=173'
p174
aS'http://www.digital.nyc/startups?page=174'
p175
aS'http://www.digital.nyc/startups?page=175'
p176
aS'http://www.digital.nyc/startups?page=176'
p177
aS'http://www.digital.nyc/startups?page=177'
p178
aS'http://www.digital.nyc/startups?page=178'
p179
aS'http://www.digital.nyc/startups?page=179'
p180
aS'http://www.digital.nyc/startups?page=180'
p181
aS'http://www.digital.nyc/startups?page=181'
p182
aS'http://www.digital.nyc/startups?page=182'
p183
aS'http://www.digital.nyc/startups?page=183'
p184
aS'http://www.digital.nyc/startups?page=184'
p185
aS'http://www.digital.nyc/startups?page=185'
p186
aS'http://www.digital.nyc/startups?page=186'
p187
aS'http://www.digital.nyc/startups?page=187'
p188
aS'http://www.digital.nyc/startups?page=188'
p189
aS'http://www.digital.nyc/startups?page=189'
p190
aS'http://www.digital.nyc/startups?page=190'
p191
aS'http://www.digital.nyc/startups?page=191'
p192
aS'http://www.digital.nyc/startups?page=192'
p193
aS'http://www.digital.nyc/startups?page=193'
p194
aS'http://www.digital.nyc/startups?page=194'
p195
aS'http://www.digital.nyc/startups?page=195'
p196
aS'http://www.digital.nyc/startups?page=196'
p197
aS'http://www.digital.nyc/startups?page=197'
p198
aS'http://www.digital.nyc/startups?page=198'
p199
aS'http://www.digital.nyc/startups?page=199'
p200
aS'http://www.digital.nyc/startups?page=200'
p201
aS'http://www.digital.nyc/startups?page=201'
p202
aS'http://www.digital.nyc/startups?page=202'
p203
aS'http://www.digital.nyc/startups?page=203'
p204
aS'http://www.digital.nyc/startups?page=204'
p205
aS'http://www.digital.nyc/startups?page=205'
p206
aS'http://www.digital.nyc/startups?page=206'
p207
aS'http://www.digital.nyc/startups?page=207'
p208
aS'http://www.digital.nyc/startups?page=208'
p209
aS'http://www.digital.nyc/startups?page=209'
p210
aS'http://www.digital.nyc/startups?page=210'
p211
aS'http://www.digital.nyc/startups?page=211'
p212
aS'http://www.digital.nyc/startups?page=212'
p213
aS'http://www.digital.nyc/startups?page=213'
p214
aS'http://www.digital.nyc/startups?page=214'
p215
aS'http://www.digital.nyc/startups?page=215'
p216
aS'http://www.digital.nyc/startups?page=216'
p217
aS'http://www.digital.nyc/startups?page=217'
p218
aS'http://www.digital.nyc/startups?page=218'
p219
aS'http://www.digital.nyc/startups?page=219'
p220
aS'http://www.digital.nyc/startups?page=220'
p221
aS'http://www.digital.nyc/startups?page=221'
p222
aS'http://www.digital.nyc/startups?page=222'
p223
aS'http://www.digital.nyc/startups?page=223'
p224
aS'http://www.digital.nyc/startups?page=224'
p225
aS'http://www.digital.nyc/startups?page=225'
p226
aS'http://www.digital.nyc/startups?page=226'
p227
aS'http://www.digital.nyc/startups?page=227'
p228
aS'http://www.digital.nyc/startups?page=228'
p229
aS'http://www.digital.nyc/startups?page=229'
p230
aS'http://www.digital.nyc/startups?page=230'
p231
aS'http://www.digital.nyc/startups?page=231'
p232
aS'http://www.digital.nyc/startups?page=232'
p233
aS'http://www.digital.nyc/startups?page=233'
p234
aS'http://www.digital.nyc/startups?page=234'
p235
aS'http://www.digital.nyc/startups?page=235'
p236
aS'http://www.digital.nyc/startups?page=236'
p237
aS'http://www.digital.nyc/startups?page=237'
p238
aS'http://www.digital.nyc/startups?page=238'
p239
aS'http://www.digital.nyc/startups?page=239'
p240
aS'http://www.digital.nyc/startups?page=240'
p241
aS'http://www.digital.nyc/startups?page=241'
p242
aS'http://www.digital.nyc/startups?page=242'
p243
aS'http://www.digital.nyc/startups?page=243'
p244
aS'http://www.digital.nyc/startups?page=244'
p245
aS'http://www.digital.nyc/startups?page=245'
p246
aS'http://www.digital.nyc/startups?page=246'
p247
aS'http://www.digital.nyc/startups?page=247'
p248
aS'http://www.digital.nyc/startups?page=248'
p249
aS'http://www.digital.nyc/startups?page=249'
p250
aS'http://www.digital.nyc/startups?page=250'
p251
aS'http://www.digital.nyc/startups?page=251'
p252
aS'http://www.digital.nyc/startups?page=252'
p253
aS'http://www.digital.nyc/startups?page=253'
p254
aS'http://www.digital.nyc/startups?page=254'
p255
aS'http://www.digital.nyc/startups?page=255'
p256
aS'http://www.digital.nyc/startups?page=256'
p257
aS'http://www.digital.nyc/startups?page=257'
p258
aS'http://www.digital.nyc/startups?page=258'
p259
aS'http://www.digital.nyc/startups?page=259'
p260
aS'http://www.digital.nyc/startups?page=260'
p261
aS'http://www.digital.nyc/startups?page=261'
p262
aS'http://www.digital.nyc/startups?page=262'
p263
aS'http://www.digital.nyc/startups?page=263'
p264
aS'http://www.digital.nyc/startups?page=264'
p265
aS'http://www.digital.nyc/startups?page=265'
p266
aS'http://www.digital.nyc/startups?page=266'
p267
aS'http://www.digital.nyc/startups?page=267'
p268
aS'http://www.digital.nyc/startups?page=268'
p269
aS'http://www.digital.nyc/startups?page=269'
p270
aS'http://www.digital.nyc/startups?page=270'
p271
aS'http://www.digital.nyc/startups?page=271'
p272
aS'http://www.digital.nyc/startups?page=272'
p273
aS'http://www.digital.nyc/startups?page=273'
p274
aS'http://www.digital.nyc/startups?page=274'
p275
aS'http://www.digital.nyc/startups?page=275'
p276
aS'http://www.digital.nyc/startups?page=276'
p277
aS'http://www.digital.nyc/startups?page=277'
p278
aS'http://www.digital.nyc/startups?page=278'
p279
aS'http://www.digital.nyc/startups?page=279'
p280
aS'http://www.digital.nyc/startups?page=280'
p281
aS'http://www.digital.nyc/startups?page=281'
p282
aS'http://www.digital.nyc/startups?page=282'
p283
aS'http://www.digital.nyc/startups?page=283'
p284
aS'http://www.digital.nyc/startups?page=284'
p285
aS'http://www.digital.nyc/startups?page=285'
p286
aS'http://www.digital.nyc/startups?page=286'
p287
aS'http://www.digital.nyc/startups?page=287'
p288
aS'http://www.digital.nyc/startups?page=288'
p289
aS'http://www.digital.nyc/startups?page=289'
p290
aS'http://www.digital.nyc/startups?page=290'
p291
aS'http://www.digital.nyc/startups?page=291'
p292
aS'http://www.digital.nyc/startups?page=292'
p293
aS'http://www.digital.nyc/startups?page=293'
p294
aS'http://www.digital.nyc/startups?page=294'
p295
aS'http://www.digital.nyc/startups?page=295'
p296
aS'http://www.digital.nyc/startups?page=296'
p297
aS'http://www.digital.nyc/startups?page=297'
p298
aS'http://www.digital.nyc/startups?page=298'
p299
aS'http://www.digital.nyc/startups?page=299'
p300
aS'http://www.digital.nyc/startups?page=300'
p301
aS'http://www.digital.nyc/startups?page=301'
p302
aS'http://www.digital.nyc/startups?page=302'
p303
aS'http://www.digital.nyc/startups?page=303'
p304
aS'http://www.digital.nyc/startups?page=304'
p305
aS'http://www.digital.nyc/startups?page=305'
p306
aS'http://www.digital.nyc/startups?page=306'
p307
aS'http://www.digital.nyc/startups?page=307'
p308
aS'http://www.digital.nyc/startups?page=308'
p309
aS'http://www.digital.nyc/startups?page=309'
p310
aS'http://www.digital.nyc/startups?page=310'
p311
aS'http://www.digital.nyc/startups?page=311'
p312
aS'http://www.digital.nyc/startups?page=312'
p313
aS'http://www.digital.nyc/startups?page=313'
p314
aS'http://www.digital.nyc/startups?page=314'
p315
aS'http://www.digital.nyc/startups?page=315'
p316
aS'http://www.digital.nyc/startups?page=316'
p317
aS'http://www.digital.nyc/startups?page=317'
p318
aS'http://www.digital.nyc/startups?page=318'
p319
aS'http://www.digital.nyc/startups?page=319'
p320
aS'http://www.digital.nyc/startups?page=320'
p321
aS'http://www.digital.nyc/startups?page=321'
p322
aS'http://www.digital.nyc/startups?page=322'
p323
aS'http://www.digital.nyc/startups?page=323'
p324
aS'http://www.digital.nyc/startups?page=324'
p325
aS'http://www.digital.nyc/startups?page=325'
p326
aS'http://www.digital.nyc/startups?page=326'
p327
aS'http://www.digital.nyc/startups?page=327'
p328
aS'http://www.digital.nyc/startups?page=328'
p329
aS'http://www.digital.nyc/startups?page=329'
p330
aS'http://www.digital.nyc/startups?page=330'
p331
aS'http://www.digital.nyc/startups?page=331'
p332
aS'http://www.digital.nyc/startups?page=332'
p333
aS'http://www.digital.nyc/startups?page=333'
p334
aS'http://www.digital.nyc/startups?page=334'
p335
aS'http://www.digital.nyc/startups?page=335'
p336
aS'http://www.digital.nyc/startups?page=336'
p337
aS'http://www.digital.nyc/startups?page=337'
p338
aS'http://www.digital.nyc/startups?page=338'
p339
aS'http://www.digital.nyc/startups?page=339'
p340
aS'http://www.digital.nyc/startups?page=340'
p341
aS'http://www.digital.nyc/startups?page=341'
p342
aS'http://www.digital.nyc/startups?page=342'
p343
aS'http://www.digital.nyc/startups?page=343'
p344
aS'http://www.digital.nyc/startups?page=344'
p345
aS'http://www.digital.nyc/startups?page=345'
p346
aS'http://www.digital.nyc/startups?page=346'
p347
aS'http://www.digital.nyc/startups?page=347'
p348
aS'http://www.digital.nyc/startups?page=348'
p349
aS'http://www.digital.nyc/startups?page=349'
p350
aS'http://www.digital.nyc/startups?page=350'
p351
aS'http://www.digital.nyc/startups?page=351'
p352
aS'http://www.digital.nyc/startups?page=352'
p353
aS'http://www.digital.nyc/startups?page=353'
p354
aS'http://www.digital.nyc/startups?page=354'
p355
aS'http://www.digital.nyc/startups?page=355'
p356
aS'http://www.digital.nyc/startups?page=356'
p357
aS'http://www.digital.nyc/startups?page=357'
p358
aS'http://www.digital.nyc/startups?page=358'
p359
aS'http://www.digital.nyc/startups?page=359'
p360
aS'http://www.digital.nyc/startups?page=360'
p361
aS'http://www.digital.nyc/startups?page=361'
p362
aS'http://www.digital.nyc/startups?page=362'
p363
aS'http://www.digital.nyc/startups?page=363'
p364
aS'http://www.digital.nyc/startups?page=364'
p365
aS'http://www.digital.nyc/startups?page=365'
p366
aS'http://www.digital.nyc/startups?page=366'
p367
aS'http://www.digital.nyc/startups?page=367'
p368
aS'http://www.digital.nyc/startups?page=368'
p369
aS'http://www.digital.nyc/startups?page=369'
p370
aS'http://www.digital.nyc/startups?page=370'
p371
aS'http://www.digital.nyc/startups?page=371'
p372
aS'http://www.digital.nyc/startups?page=372'
p373
aS'http://www.digital.nyc/startups?page=373'
p374
aS'http://www.digital.nyc/startups?page=374'
p375
aS'http://www.digital.nyc/startups?page=375'
p376
aS'http://www.digital.nyc/startups?page=376'
p377
aS'http://www.digital.nyc/startups?page=377'
p378
aS'http://www.digital.nyc/startups?page=378'
p379
aS'http://www.digital.nyc/startups?page=379'
p380
a.